; Function Attrs: nofree norecurse nosync nounwind memory(argmem: readwrite) uwtable
define internal void @h264_h_loop_filter_chroma422_8_c(ptr noundef captures(none) %0, i64 noundef %1, i32 noundef %2, i32 noundef %3, ptr noundef readonly captures(none) %4) #1 {
  %6 = shl nsw i64 %1, 2
  br label %7

7:                                                ; preds = %5, %.loopexit
  %indvars.iv = phi i64 [ 0, %5 ], [ %indvars.iv.next, %.loopexit ]
  %.0.i7 = phi ptr [ %0, %5 ], [ %.1.i, %.loopexit ]
  %8 = getelementptr inbounds nuw i8, ptr %4, i64 %indvars.iv
  %9 = load i8, ptr %8, align 1, !tbaa !42
  %10 = sext i8 %9 to i32
  %11 = icmp slt i8 %9, 1
  br i1 %11, label %13, label %.preheader

.preheader:                                       ; preds = %7
  %12 = sub nsw i32 0, %10
  br label %15

13:                                               ; preds = %7
  %14 = getelementptr inbounds i8, ptr %.0.i7, i64 %6
  br label %.loopexit

15:                                               ; preds = %.preheader, %52
  %.2.i5 = phi ptr [ %.0.i7, %.preheader ], [ %53, %52 ]
  %.059.i4 = phi i32 [ 0, %.preheader ], [ %54, %52 ]
  %16 = getelementptr inbounds i8, ptr %.2.i5, i64 -1
  %17 = load i8, ptr %16, align 1, !tbaa !42
  %18 = zext i8 %17 to i32
  %19 = getelementptr inbounds i8, ptr %.2.i5, i64 -2
  %20 = load i8, ptr %19, align 1, !tbaa !42
  %21 = zext i8 %20 to i32
  %22 = load i8, ptr %.2.i5, align 1, !tbaa !42
  %23 = zext i8 %22 to i32
  %24 = getelementptr inbounds nuw i8, ptr %.2.i5, i64 1
  %25 = load i8, ptr %24, align 1, !tbaa !42
  %26 = zext i8 %25 to i32
  %27 = sub nsw i32 %18, %23
  %28 = tail call i32 @llvm.abs.i32(i32 %27, i1 true)
  %29 = icmp slt i32 %28, %2
  br i1 %29, label %30, label %52

30:                                               ; preds = %15
  %31 = sub nsw i32 %21, %18
  %32 = tail call i32 @llvm.abs.i32(i32 %31, i1 true)
  %33 = icmp slt i32 %32, %3
  br i1 %33, label %34, label %52

34:                                               ; preds = %30
  %35 = sub nsw i32 %26, %23
  %36 = tail call i32 @llvm.abs.i32(i32 %35, i1 true)
  %37 = icmp samesign ult i32 %36, %3
  br i1 %37, label %38, label %52

38:                                               ; preds = %34
  %39 = sub nsw i32 %23, %18
  %40 = shl nsw i32 %39, 2
  %41 = add nuw nsw i32 %21, 4
  %42 = sub nsw i32 %41, %26
  %43 = add nsw i32 %42, %40
  %44 = ashr i32 %43, 3
  %45 = icmp slt i32 %44, %12
  %..i.i = tail call i32 @llvm.smin.i32(i32 %44, i32 %10)
  %.0.i.i = select i1 %45, i32 %12, i32 %..i.i
  %46 = add nsw i32 %.0.i.i, %18
  %.not.i69.i = icmp ult i32 %46, 256
  %isnotneg.i70.i = icmp sgt i32 %46, -1
  %47 = sext i1 %isnotneg.i70.i to i8
  %48 = trunc nuw i32 %46 to i8
  %.0.i71.i = select i1 %.not.i69.i, i8 %48, i8 %47
  store i8 %.0.i71.i, ptr %16, align 1, !tbaa !42
  %49 = sub nsw i32 %23, %.0.i.i
  %.not.i.i = icmp ult i32 %49, 256
  %isnotneg.i.i = icmp sgt i32 %49, -1
  %50 = sext i1 %isnotneg.i.i to i8
  %51 = trunc nuw i32 %49 to i8
  %.0.i68.i = select i1 %.not.i.i, i8 %51, i8 %50
  store i8 %.0.i68.i, ptr %.2.i5, align 1, !tbaa !42
  br label %52

52:                                               ; preds = %38, %34, %30, %15
  %53 = getelementptr inbounds i8, ptr %.2.i5, i64 %1
  %54 = add nuw nsw i32 %.059.i4, 1
  %exitcond.not = icmp eq i32 %54, 4
  br i1 %exitcond.not, label %.loopexit, label %15, !llvm.loop !112

.loopexit:                                        ; preds = %52, %13
  %.1.i = phi ptr [ %14, %13 ], [ %53, %52 ]
  %indvars.iv.next = add nuw nsw i64 %indvars.iv, 1
  %exitcond9.not = icmp eq i64 %indvars.iv.next, 4
  br i1 %exitcond9.not, label %h264_loop_filter_chroma_8_c.exit, label %7, !llvm.loop !113

h264_loop_filter_chroma_8_c.exit:                 ; preds = %.loopexit
  ret void
}